; Function Attrs: nofree norecurse nosync nounwind memory(readwrite, inaccessiblemem: none) uwtable
define hidden void @python_hashlib_Hacl_Hash_SHA1_digest(ptr noundef readonly captures(none) %0, ptr noundef writeonly captures(none) initializes((0, 20)) %1) local_unnamed_addr #10 {
  %3 = alloca [128 x i8], align 16
  %4 = alloca [5 x i32], align 16
  %.sroa.0.0.copyload = load ptr, ptr %0, align 8, !tbaa !12
  %.sroa.4.0..sroa_idx = getelementptr inbounds nuw i8, ptr %0, i64 8
  %.sroa.4.0.copyload = load ptr, ptr %.sroa.4.0..sroa_idx, align 8, !tbaa !15
  %.sroa.5.0..sroa_idx = getelementptr inbounds nuw i8, ptr %0, i64 16
  %.sroa.5.0.copyload = load i64, ptr %.sroa.5.0..sroa_idx, align 8, !tbaa !17
  %5 = and i64 %.sroa.5.0.copyload, 63
  %6 = icmp eq i64 %5, 0
  %7 = icmp ne i64 %.sroa.5.0.copyload, 0
  %or.cond = and i1 %7, %6
  %8 = trunc nuw nsw i64 %5 to i32
  %.0 = select i1 %or.cond, i32 64, i32 %8
  call void @llvm.lifetime.start.p0(i64 20, ptr nonnull %4) #15
  call void @llvm.memcpy.p0.p0.i64(ptr noundef nonnull align 16 dereferenceable(20) %4, ptr noundef nonnull align 4 dereferenceable(20) %.sroa.0.0.copyload, i64 20, i1 false)
  %9 = and i32 %.0, 63
  %10 = icmp eq i32 %9, 0
  %11 = icmp ne i32 %.0, 0
  %or.cond3 = and i1 %11, %10
  %12 = zext nneg i32 %9 to i64
  %.022 = select i1 %or.cond3, i64 64, i64 %12
  %13 = zext nneg i32 %.0 to i64
  %14 = getelementptr i8, ptr %.sroa.4.0.copyload, i64 %13
  %15 = sub nsw i64 0, %.022
  %16 = getelementptr i8, ptr %14, i64 %15
  %17 = lshr i32 %.0, 6
  %18 = and i32 %.0, 64
  %19 = zext nneg i32 %18 to i64
  %20 = getelementptr i8, ptr %16, i64 %19
  call void @python_hashlib_Hacl_Hash_SHA1_update_multi(ptr noundef nonnull %4, ptr noundef readonly %16, i32 noundef %17)
  %21 = trunc i64 %.sroa.5.0.copyload to i32
  %22 = sub i32 55, %21
  %23 = and i32 %22, 63
  call void @llvm.lifetime.start.p0(i64 128, ptr nonnull %3) #15
  call void @llvm.memset.p0.i64(ptr noundef nonnull align 16 dereferenceable(128) %3, i8 0, i64 128, i1 false)
  %24 = getelementptr i8, ptr %3, i64 %12
  call void @llvm.memcpy.p0.p0.i64(ptr nonnull align 16 %3, ptr readonly align 1 %20, i64 %12, i1 false)
  store i8 -128, ptr %24, align 1, !tbaa !11
  %25 = getelementptr i8, ptr %24, i64 1
  %.not.i.i = icmp eq i32 %23, 0
  br i1 %.not.i.i, label %python_hashlib_Hacl_Hash_SHA1_update_last.exit, label %.lr.ph.preheader.i.i

.lr.ph.preheader.i.i:                             ; preds = %2
  %26 = sub i64 55, %.sroa.5.0.copyload
  %27 = and i64 %26, 63
  call void @llvm.memset.p0.i64(ptr align 1 %25, i8 0, i64 %27, i1 false), !tbaa !11
  br label %python_hashlib_Hacl_Hash_SHA1_update_last.exit

python_hashlib_Hacl_Hash_SHA1_update_last.exit:   ; preds = %2, %.lr.ph.preheader.i.i
  %28 = add nuw nsw i32 %23, 9
  %29 = add nuw nsw i32 %28, %9
  %30 = zext nneg i32 %23 to i64
  %31 = getelementptr i8, ptr %25, i64 %30
  %32 = shl i64 %.sroa.5.0.copyload, 3
  %33 = tail call noundef i64 @llvm.bswap.i64(i64 range(i64 0, -7) %32)
  store i64 %33, ptr %31, align 1
  %34 = lshr i32 %29, 6
  call void @python_hashlib_Hacl_Hash_SHA1_update_multi(ptr noundef nonnull %4, ptr noundef nonnull %3, i32 noundef %34)
  call void @llvm.lifetime.end.p0(i64 128, ptr nonnull %3) #15
  %35 = load i32, ptr %4, align 16, !tbaa !3
  %36 = tail call noundef i32 @llvm.bswap.i32(i32 %35)
  store i32 %36, ptr %1, align 1
  %37 = getelementptr i8, ptr %1, i64 4
  %38 = getelementptr inbounds nuw i8, ptr %4, i64 4
  %39 = load i32, ptr %38, align 4, !tbaa !3
  %40 = tail call noundef i32 @llvm.bswap.i32(i32 %39)
  store i32 %40, ptr %37, align 1
  %41 = getelementptr i8, ptr %1, i64 8
  %42 = getelementptr inbounds nuw i8, ptr %4, i64 8
  %43 = load i32, ptr %42, align 8, !tbaa !3
  %44 = tail call noundef i32 @llvm.bswap.i32(i32 %43)
  store i32 %44, ptr %41, align 1
  %45 = getelementptr i8, ptr %1, i64 12
  %46 = getelementptr inbounds nuw i8, ptr %4, i64 12
  %47 = load i32, ptr %46, align 4, !tbaa !3
  %48 = tail call noundef i32 @llvm.bswap.i32(i32 %47)
  store i32 %48, ptr %45, align 1
  %49 = getelementptr i8, ptr %1, i64 16
  %50 = getelementptr inbounds nuw i8, ptr %4, i64 16
  %51 = load i32, ptr %50, align 16, !tbaa !3
  %52 = tail call noundef i32 @llvm.bswap.i32(i32 %51)
  store i32 %52, ptr %49, align 1
  call void @llvm.lifetime.end.p0(i64 20, ptr nonnull %4) #15
  ret void
}